; Function Attrs: nounwind uwtable
define internal ptr @jit_enabled(ptr readnone captures(none) %0, ptr readnone captures(none) %1) #0 {
  %3 = tail call ptr @_PyThreadState_GetCurrent() #11
  %4 = getelementptr inbounds nuw i8, ptr %3, i64 16
  %5 = load ptr, ptr %4, align 8, !tbaa !45
  %6 = getelementptr inbounds nuw i8, ptr %5, i64 222968
  %7 = load i8, ptr %6, align 8, !tbaa !145, !range !146, !noundef !147
  %8 = zext nneg i8 %7 to i64
  %9 = tail call ptr @PyBool_FromLong(i64 noundef %8) #11
  ret ptr %9
}